(dp0
S'METTS MARK'
p1
(dp2
S'to_messages'
p3
I807
sS'deferral_payments'
p4
I0
sS'expenses'
p5
I94299
sS'poi'
p6
I0
sS'deferred_income'
p7
I0
sS'email_address'
p8
S'mark.metts@enron.com'
p9
sS'long_term_incentive'
p10
I0
sS'restricted_stock_deferred'
p11
I0
sS'shared_receipt_with_poi'
p12
I702
sS'loan_advances'
p13
I0
sS'from_messages'
p14
I29
sS'other'
p15
I1740
sS'director_fees'
p16
I0
sS'bonus'
p17
I600000
sS'total_stock_value'
p18
I585062
sS'from_poi_to_this_person'
p19
I38
sS'from_this_person_to_poi'
p20
I1
sS'restricted_stock'
p21
I585062
sS'fraction_from_this_person_to_poi'
p22
F0.034482758620689655
sS'salary'
p23
I365788
sS'total_payments'
p24
I1061827
sS'exercised_stock_options'
p25
I0
sS'fraction_from_poi_to_this_person'
p26
F0.04708798017348203
ssS'BAXTER JOHN C'
p27
(dp28
g3
I0
sg4
I1295738
sg5
I11200
sg6
I0
sg7
I-1386055
sg8
S'NaN'
p29
sg10
I1586055
sg11
I0
sg12
I0
sg13
I0
sg14
I0
sg15
I2660303
sg16
I0
sg17
I1200000
sg18
I10623258
sg19
I0
sg20
I0
sg21
I3942714
sg22
I0
sg23
I267102
sg24
I5634343
sg25
I6680544
sg26
I0
ssS'ELLIOTT STEVEN'
p30
(dp31
g3
I0
sg4
I0
sg5
I78552
sg6
I0
sg7
I-400729
sg8
S'steven.elliott@enron.com'
p32
sg10
I0
sg11
I0
sg12
I0
sg13
I0
sg14
I0
sg15
I12961
sg16
I0
sg17
I350000
sg18
I6678735
sg19
I0
sg20
I0
sg21
I1788391
sg22
I0
sg23
I170941
sg24
I211725
sg25
I4890344
sg26
I0
ssS'CORDES WILLIAM R'
p33
(dp34
g3
I764
sg4
I0
sg5
I0
sg6
I0
sg7
I0
sg8
S'bill.cordes@enron.com'
p35
sg10
I0
sg11
I0
sg12
I58
sg13
I0
sg14
I12
sg15
I0
sg16
I0
sg17
I0
sg18
I1038185
sg19
I10
sg20
I0
sg21
I386335
sg22
I0
sg23
I0
sg24
I0
sg25
I651850
sg26
F0.013089005235602094
ssS'HANNON KEVIN P'
p36
(dp37
g3
I1045
sg4
I0
sg5
I34039
sg6
I01
sg7
I-3117011
sg8
S'kevin.hannon@enron.com'
p38
sg10
I1617011
sg11
I0
sg12
I1035
sg13
I0
sg14
I32
sg15
I11350
sg16
I0
sg17
I1500000
sg18
I6391065
sg19
I32
sg20
I21
sg21
I853064
sg22
F0.65625
sg23
I243293
sg24
I288682
sg25
I5538001
sg26
F0.03062200956937799
ssS'MORDAUNT KRISTINA M'
p39
(dp40
g3
I0
sg4
I0
sg5
I35018
sg6
I0
sg7
I0
sg8
S'kristina.mordaunt@enron.com'
p41
sg10
I0
sg11
I0
sg12
I0
sg13
I0
sg14
I0
sg15
I1411
sg16
I0
sg17
I325000
sg18
I208510
sg19
I0
sg20
I0
sg21
I208510
sg22
I0
sg23
I267093
sg24
I628522
sg25
I0
sg26
I0
ssS'MEYER ROCKFORD G'
p42
(dp43
g3
I232
sg4
I1848227
sg5
I0
sg6
I0
sg7
I0
sg8
S'rockford.meyer@enron.com'
p44
sg10
I0
sg11
I0
sg12
I22
sg13
I0
sg14
I28
sg15
I0
sg16
I0
sg17
I0
sg18
I955873
sg19
I0
sg20
I0
sg21
I462384
sg22
I0
sg23
I0
sg24
I1848227
sg25
I493489
sg26
I0
ssS'MCMAHON JEFFREY'
p45
(dp46
g3
I2355
sg4
I0
sg5
I137108
sg6
I0
sg7
I0
sg8
S'jeffrey.mcmahon@enron.com'
p47
sg10
I694862
sg11
I0
sg12
I2228
sg13
I0
sg14
I48
sg15
I297353
sg16
I0
sg17
I2600000
sg18
I1662855
sg19
I58
sg20
I26
sg21
I558801
sg22
F0.5416666666666666
sg23
I370448
sg24
I4099771
sg25
I1104054
sg26
F0.024628450106157114
ssS'HORTON STANLEY C'
p48
(dp49
g3
I2350
sg4
I3131860
sg5
I0
sg6
I0
sg7
I0
sg8
S'stanley.horton@enron.com'
p50
sg10
I0
sg11
I0
sg12
I1074
sg13
I0
sg14
I1073
sg15
I0
sg16
I0
sg17
I0
sg18
I7256648
sg19
I44
sg20
I15
sg21
I2046079
sg22
F0.013979496738117428
sg23
I0
sg24
I3131860
sg25
I5210569
sg26
F0.01872340425531915
ssS'PIPER GREGORY F'
p51
(dp52
g3
I1238
sg4
I1130036
sg5
I43057
sg6
I0
sg7
I-33333
sg8
S'greg.piper@enron.com'
p53
sg10
I0
sg11
I-409554
sg12
I742
sg13
I0
sg14
I222
sg15
I778
sg16
I0
sg17
I400000
sg18
I880290
sg19
I61
sg20
I48
sg21
I409554
sg22
F0.21621621621621623
sg23
I197091
sg24
I1737629
sg25
I880290
sg26
F0.049273021001615507
ssS'HUMPHREY GENE E'
p54
(dp55
g3
I128
sg4
I2964506
sg5
I4994
sg6
I0
sg7
I0
sg8
S'gene.humphrey@enron.com'
p56
sg10
I0
sg11
I0
sg12
I119
sg13
I0
sg14
I17
sg15
I0
sg16
I0
sg17
I0
sg18
I2282768
sg19
I10
sg20
I17
sg21
I0
sg22
F1.0
sg23
I130724
sg24
I3100224
sg25
I2282768
sg26
F0.078125
ssS'UMANOFF ADAM S'
p57
(dp58
g3
I111
sg4
I0
sg5
I53122
sg6
I0
sg7
I0
sg8
S'adam.umanoff@enron.com'
p59
sg10
I0
sg11
I0
sg12
I41
sg13
I0
sg14
I18
sg15
I0
sg16
I0
sg17
I788750
sg18
I0
sg19
I12
sg20
I0
sg21
I0
sg22
I0
sg23
I288589
sg24
I1130461
sg25
I0
sg26
F0.10810810810810811
ssS'BLACHMAN JEREMY M'
p60
(dp61
g3
I2475
sg4
I0
sg5
I84208
sg6
I0
sg7
I0
sg8
S'jeremy.blachman@enron.com'
p62
sg10
I831809
sg11
I0
sg12
I2326
sg13
I0
sg14
I14
sg15
I272
sg16
I0
sg17
I850000
sg18
I954354
sg19
I25
sg20
I2
sg21
I189041
sg22
F0.14285714285714285
sg23
I248546
sg24
I2014835
sg25
I765313
sg26
F0.010101010101010102
ssS'SUNDE MARTIN'
p63
(dp64
g3
I2647
sg4
I0
sg5
I0
sg6
I0
sg7
I0
sg8
S'marty.sunde@enron.com'
p65
sg10
I476451
sg11
I0
sg12
I2565
sg13
I0
sg14
I38
sg15
I111122
sg16
I0
sg17
I700000
sg18
I698920
sg19
I37
sg20
I13
sg21
I698920
sg22
F0.34210526315789475
sg23
I257486
sg24
I1545059
sg25
I0
sg26
F0.013978088401964487
ssS'GIBBS DANA R'
p66
(dp67
g3
I169
sg4
I504610
sg5
I0
sg6
I0
sg7
I0
sg8
S'dana.gibbs@enron.com'
p68
sg10
I461912
sg11
I0
sg12
I23
sg13
I0
sg14
I12
sg15
I0
sg16
I0
sg17
I0
sg18
I2218275
sg19
I0
sg20
I0
sg21
I0
sg22
I0
sg23
I0
sg24
I966522
sg25
I2218275
sg26
I0
ssS'LOWRY CHARLES P'
p69
(dp70
g3
I0
sg4
I0
sg5
I0
sg6
I0
sg7
I0
sg8
g29
sg10
I0
sg11
I-153686
sg12
I0
sg13
I0
sg14
I0
sg15
I0
sg16
I0
sg17
I0
sg18
I372205
sg19
I0
sg20
I0
sg21
I153686
sg22
I0
sg23
I0
sg24
I0
sg25
I372205
sg26
I0
ssS'COLWELL WESLEY'
p71
(dp72
g3
I1758
sg4
I27610
sg5
I16514
sg6
I01
sg7
I-144062
sg8
S'wes.colwell@enron.com'
p73
sg10
I0
sg11
I0
sg12
I1132
sg13
I0
sg14
I40
sg15
I101740
sg16
I0
sg17
I1200000
sg18
I698242
sg19
I240
sg20
I11
sg21
I698242
sg22
F0.275
sg23
I288542
sg24
I1490344
sg25
I0
sg26
F0.13651877133105803
ssS'MULLER MARK S'
p74
(dp75
g3
I136
sg4
I842924
sg5
I0
sg6
I0
sg7
I-719000
sg8
S's..muller@enron.com'
p76
sg10
I1725545
sg11
I0
sg12
I114
sg13
I0
sg14
I16
sg15
I947
sg16
I0
sg17
I1100000
sg18
I1416848
sg19
I12
sg20
I0
sg21
I360528
sg22
I0
sg23
I251654
sg24
I3202070
sg25
I1056320
sg26
F0.08823529411764706
ssS'JACKSON CHARLENE R'
p77
(dp78
g3
I258
sg4
I0
sg5
I10181
sg6
I0
sg7
I0
sg8
S'charlene.jackson@enron.com'
p79
sg10
I0
sg11
I0
sg12
I117
sg13
I0
sg14
I56
sg15
I2435
sg16
I0
sg17
I250000
sg18
I725735
sg19
I25
sg20
I19
sg21
I540672
sg22
F0.3392857142857143
sg23
I288558
sg24
I551174
sg25
I185063
sg26
F0.09689922480620156
ssS'WESTFAHL RICHARD K'
p80
(dp81
g3
I0
sg4
I0
sg5
I51870
sg6
I0
sg7
I-10800
sg8
S'dick.westfahl@enron.com'
p82
sg10
I256191
sg11
I0
sg12
I0
sg13
I0
sg14
I0
sg15
I401130
sg16
I0
sg17
I0
sg18
I384930
sg19
I0
sg20
I0
sg21
I384930
sg22
I0
sg23
I63744
sg24
I762135
sg25
I0
sg26
I0
ssS'WALTERS GARETH W'
p83
(dp84
g3
I0
sg4
I53625
sg5
I33785
sg6
I0
sg7
I0
sg8
g29
sg10
I0
sg11
I0
sg12
I0
sg13
I0
sg14
I0
sg15
I0
sg16
I0
sg17
I0
sg18
I1030329
sg19
I0
sg20
I0
sg21
I0
sg22
I0
sg23
I0
sg24
I87410
sg25
I1030329
sg26
I0
ssS'WALLS JR ROBERT H'
p85
(dp86
g3
I671
sg4
I0
sg5
I50936
sg6
I0
sg7
I0
sg8
S'rob.walls@enron.com'
p87
sg10
I540751
sg11
I0
sg12
I215
sg13
I0
sg14
I146
sg15
I2
sg16
I0
sg17
I850000
sg18
I5898997
sg19
I17
sg20
I0
sg21
I1552453
sg22
I0
sg23
I357091
sg24
I1798780
sg25
I4346544
sg26
F0.02533532041728763
ssS'KITCHEN LOUISE'
p88
(dp89
g3
I8305
sg4
I0
sg5
I5774
sg6
I0
sg7
I0
sg8
S'louise.kitchen@enron.com'
p90
sg10
I0
sg11
I0
sg12
I3669
sg13
I0
sg14
I1728
sg15
I93925
sg16
I0
sg17
I3100000
sg18
I547143
sg19
I251
sg20
I194
sg21
I466101
sg22
F0.11226851851851852
sg23
I271442
sg24
I3471141
sg25
I81042
sg26
F0.030222757375075255
ssS'CHAN RONNIE'
p91
(dp92
g3
I0
sg4
I0
sg5
I0
sg6
I0
sg7
I-98784
sg8
g29
sg10
I0
sg11
I-32460
sg12
I0
sg13
I0
sg14
I0
sg15
I0
sg16
I98784
sg17
I0
sg18
I0
sg19
I0
sg20
I0
sg21
I32460
sg22
I0
sg23
I0
sg24
I0
sg25
I0
sg26
I0
ssS'BELFER ROBERT'
p93
(dp94
g3
I0
sg4
I-102500
sg5
I0
sg6
I0
sg7
I0
sg8
g29
sg10
I0
sg11
I44093
sg12
I0
sg13
I0
sg14
I0
sg15
I0
sg16
I3285
sg17
I0
sg18
I-44093
sg19
I0
sg20
I0
sg21
I0
sg22
I0
sg23
I0
sg24
I102500
sg25
I3285
sg26
I0
ssS'SHANKMAN JEFFREY A'
p95
(dp96
g3
I3221
sg4
I0
sg5
I178979
sg6
I0
sg7
I0
sg8
S'jeffrey.shankman@enron.com'
p97
sg10
I554422
sg11
I0
sg12
I1730
sg13
I0
sg14
I2681
sg15
I1191
sg16
I0
sg17
I2000000
sg18
I2072035
sg19
I94
sg20
I83
sg21
I630137
sg22
F0.030958597538232
sg23
I304110
sg24
I3038702
sg25
I1441898
sg26
F0.029183483390251473
ssS'WODRASKA JOHN'
p98
(dp99
g3
I0
sg4
I0
sg5
I0
sg6
I0
sg7
I0
sg8
S'john.wodraska@enron.com'
p100
sg10
I0
sg11
I0
sg12
I0
sg13
I0
sg14
I0
sg15
I189583
sg16
I0
sg17
I0
sg18
I0
sg19
I0
sg20
I0
sg21
I0
sg22
I0
sg23
I0
sg24
I189583
sg25
I0
sg26
I0
ssS'BERGSIEKER RICHARD P'
p101
(dp102
g3
I383
sg4
I0
sg5
I59175
sg6
I0
sg7
I-485813
sg8
S'rick.bergsieker@enron.com'
p103
sg10
I180250
sg11
I0
sg12
I233
sg13
I0
sg14
I59
sg15
I427316
sg16
I0
sg17
I250000
sg18
I659249
sg19
I4
sg20
I0
sg21
I659249
sg22
I0
sg23
I187922
sg24
I618850
sg25
I0
sg26
F0.010443864229765013
ssS'URQUHART JOHN A'
p104
(dp105
g3
I0
sg4
I0
sg5
I228656
sg6
I0
sg7
I-36666
sg8
g29
sg10
I0
sg11
I0
sg12
I0
sg13
I0
sg14
I0
sg15
I0
sg16
I36666
sg17
I0
sg18
I0
sg19
I0
sg20
I0
sg21
I0
sg22
I0
sg23
I0
sg24
I228656
sg25
I0
sg26
I0
ssS'BIBI PHILIPPE A'
p106
(dp107
g3
I1607
sg4
I0
sg5
I38559
sg6
I0
sg7
I0
sg8
S'philippe.bibi@enron.com'
p108
sg10
I369721
sg11
I0
sg12
I1336
sg13
I0
sg14
I40
sg15
I425688
sg16
I0
sg17
I1000000
sg18
I1843816
sg19
I23
sg20
I8
sg21
I378082
sg22
F0.2
sg23
I213625
sg24
I2047593
sg25
I1465734
sg26
F0.01431238332296204
ssS'RIEKER PAULA H'
p109
(dp110
g3
I1328
sg4
I214678
sg5
I33271
sg6
I01
sg7
I-100000
sg8
S'paula.rieker@enron.com'
p111
sg10
I0
sg11
I0
sg12
I1258
sg13
I0
sg14
I82
sg15
I1950
sg16
I0
sg17
I700000
sg18
I1918887
sg19
I35
sg20
I48
sg21
I283649
sg22
F0.5853658536585366
sg23
I249201
sg24
I1099100
sg25
I1635238
sg26
F0.02635542168674699
ssS'WHALEY DAVID A'
p112
(dp113
g3
I0
sg4
I0
sg5
I0
sg6
I0
sg7
I0
sg8
g29
sg10
I0
sg11
I0
sg12
I0
sg13
I0
sg14
I0
sg15
I0
sg16
I0
sg17
I0
sg18
I98718
sg19
I0
sg20
I0
sg21
I0
sg22
I0
sg23
I0
sg24
I0
sg25
I98718
sg26
I0
ssS'BECK SALLY W'
p114
(dp115
g3
I7315
sg4
I0
sg5
I37172
sg6
I0
sg7
I0
sg8
S'sally.beck@enron.com'
p116
sg10
I0
sg11
I0
sg12
I2639
sg13
I0
sg14
I4343
sg15
I566
sg16
I0
sg17
I700000
sg18
I126027
sg19
I144
sg20
I386
sg21
I126027
sg22
F0.08887865530739121
sg23
I231330
sg24
I969068
sg25
I0
sg26
F0.01968557758031442
ssS'HAUG DAVID L'
p117
(dp118
g3
I573
sg4
I0
sg5
I475
sg6
I0
sg7
I0
sg8
S'david.haug@enron.com'
p119
sg10
I0
sg11
I0
sg12
I471
sg13
I0
sg14
I19
sg15
I0
sg16
I0
sg17
I0
sg18
I2217299
sg19
I4
sg20
I7
sg21
I2217299
sg22
F0.3684210526315789
sg23
I0
sg24
I475
sg25
I0
sg26
F0.006980802792321117
ssS'ECHOLS JOHN B'
p120
(dp121
g3
I0
sg4
I0
sg5
I21530
sg6
I0
sg7
I0
sg8
S'john.echols@enron.com'
p122
sg10
I2234774
sg11
I0
sg12
I0
sg13
I0
sg14
I0
sg15
I53775
sg16
I0
sg17
I200000
sg18
I1008941
sg19
I0
sg20
I0
sg21
I407503
sg22
I0
sg23
I182245
sg24
I2692324
sg25
I601438
sg26
I0
ssS'MENDELSOHN JOHN'
p123
(dp124
g3
I0
sg4
I0
sg5
I148
sg6
I0
sg7
I-103750
sg8
g29
sg10
I0
sg11
I0
sg12
I0
sg13
I0
sg14
I0
sg15
I0
sg16
I103750
sg17
I0
sg18
I0
sg19
I0
sg20
I0
sg21
I0
sg22
I0
sg23
I0
sg24
I148
sg25
I0
sg26
I0
ssS'HICKERSON GARY J'
p125
(dp126
g3
I1320
sg4
I0
sg5
I98849
sg6
I0
sg7
I0
sg8
S'gary.hickerson@enron.com'
p127
sg10
I69223
sg11
I0
sg12
I900
sg13
I0
sg14
I27
sg15
I1936
sg16
I0
sg17
I1700000
sg18
I441096
sg19
I40
sg20
I1
sg21
I441096
sg22
F0.037037037037037035
sg23
I211788
sg24
I2081796
sg25
I0
sg26
F0.030303030303030304
ssS'CLINE KENNETH W'
p128
(dp129
g3
I0
sg4
I0
sg5
I0
sg6
I0
sg7
I0
sg8
g29
sg10
I0
sg11
I-472568
sg12
I0
sg13
I0
sg14
I0
sg15
I0
sg16
I0
sg17
I0
sg18
I189518
sg19
I0
sg20
I0
sg21
I662086
sg22
I0
sg23
I0
sg24
I0
sg25
I0
sg26
I0
ssS'LEWIS RICHARD'
p130
(dp131
g3
I952
sg4
I0
sg5
I0
sg6
I0
sg7
I0
sg8
S'richard.lewis@enron.com'
p132
sg10
I0
sg11
I0
sg12
I739
sg13
I0
sg14
I26
sg15
I0
sg16
I0
sg17
I0
sg18
I850477
sg19
I10
sg20
I0
sg21
I0
sg22
I0
sg23
I0
sg24
I0
sg25
I850477
sg26
F0.01050420168067227
ssS'HAYES ROBERT E'
p133
(dp134
g3
I504
sg4
I7961
sg5
I0
sg6
I0
sg7
I0
sg8
S'robert.hayes@enron.com'
p135
sg10
I0
sg11
I0
sg12
I50
sg13
I0
sg14
I12
sg15
I0
sg16
I0
sg17
I0
sg18
I151418
sg19
I16
sg20
I0
sg21
I151418
sg22
I0
sg23
I0
sg24
I7961
sg25
I0
sg26
F0.031746031746031744
ssS'MCCARTY DANNY J'
p136
(dp137
g3
I1433
sg4
I0
sg5
I0
sg6
I0
sg7
I0
sg8
S'danny.mccarty@enron.com'
p138
sg10
I0
sg11
I0
sg12
I508
sg13
I0
sg14
I215
sg15
I0
sg16
I0
sg17
I0
sg18
I758931
sg19
I25
sg20
I2
sg21
I94556
sg22
F0.009302325581395349
sg23
I0
sg24
I0
sg25
I664375
sg26
F0.017445917655268667
ssS'KOPPER MICHAEL J'
p139
(dp140
g3
I0
sg4
I0
sg5
I118134
sg6
I01
sg7
I0
sg8
S'michael.kopper@enron.com'
p141
sg10
I602671
sg11
I0
sg12
I0
sg13
I0
sg14
I0
sg15
I907502
sg16
I0
sg17
I800000
sg18
I985032
sg19
I0
sg20
I0
sg21
I985032
sg22
I0
sg23
I224305
sg24
I2652612
sg25
I0
sg26
I0
ssS'LEFF DANIEL P'
p142
(dp143
g3
I2822
sg4
I0
sg5
I0
sg6
I0
sg7
I0
sg8
S'dan.leff@enron.com'
p144
sg10
I1387399
sg11
I0
sg12
I2672
sg13
I0
sg14
I63
sg15
I3083
sg16
I0
sg17
I1000000
sg18
I360528
sg19
I67
sg20
I14
sg21
I360528
sg22
F0.2222222222222222
sg23
I273746
sg24
I2664228
sg25
I0
sg26
F0.02374202693125443
ssS'LAVORATO JOHN J'
p145
(dp146
g3
I7259
sg4
I0
sg5
I49537
sg6
I0
sg7
I0
sg8
S'john.lavorato@enron.com'
p147
sg10
I2035380
sg11
I0
sg12
I3962
sg13
I0
sg14
I2585
sg15
I1552
sg16
I0
sg17
I8000000
sg18
I5167144
sg19
I528
sg20
I411
sg21
I1008149
sg22
F0.15899419729206962
sg23
I339288
sg24
I10425757
sg25
I4158995
sg26
F0.07273729163796666
ssS'BERBERIAN DAVID'
p148
(dp149
g3
I0
sg4
I0
sg5
I11892
sg6
I0
sg7
I0
sg8
S'david.berberian@enron.com'
p150
sg10
I0
sg11
I0
sg12
I0
sg13
I0
sg14
I0
sg15
I0
sg16
I0
sg17
I0
sg18
I2493616
sg19
I0
sg20
I0
sg21
I869220
sg22
I0
sg23
I216582
sg24
I228474
sg25
I1624396
sg26
I0
ssS'DETMERING TIMOTHY J'
p151
(dp152
g3
I0
sg4
I875307
sg5
I52255
sg6
I0
sg7
I-775241
sg8
S'timothy.detmering@enron.com'
p153
sg10
I415657
sg11
I-315068
sg12
I0
sg13
I0
sg14
I0
sg15
I1105
sg16
I0
sg17
I425000
sg18
I2027865
sg19
I0
sg20
I0
sg21
I315068
sg22
I0
sg23
I210500
sg24
I1204583
sg25
I2027865
sg26
I0
ssS'WAKEHAM JOHN'
p154
(dp155
g3
I0
sg4
I0
sg5
I103773
sg6
I0
sg7
I0
sg8
g29
sg10
I0
sg11
I0
sg12
I0
sg13
I0
sg14
I0
sg15
I0
sg16
I109298
sg17
I0
sg18
I0
sg19
I0
sg20
I0
sg21
I0
sg22
I0
sg23
I0
sg24
I213071
sg25
I0
sg26
I0
ssS'POWERS WILLIAM'
p156
(dp157
g3
I653
sg4
I0
sg5
I0
sg6
I0
sg7
I-17500
sg8
S'ken.powers@enron.com'
p158
sg10
I0
sg11
I0
sg12
I12
sg13
I0
sg14
I26
sg15
I0
sg16
I17500
sg17
I0
sg18
I0
sg19
I0
sg20
I0
sg21
I0
sg22
I0
sg23
I0
sg24
I0
sg25
I0
sg26
I0
ssS'GOLD JOSEPH'
p159
(dp160
g3
I0
sg4
I0
sg5
I0
sg6
I0
sg7
I0
sg8
S'joe.gold@enron.com'
p161
sg10
I304805
sg11
I0
sg12
I0
sg13
I0
sg14
I0
sg15
I819288
sg16
I0
sg17
I750000
sg18
I877611
sg19
I0
sg20
I0
sg21
I441096
sg22
I0
sg23
I272880
sg24
I2146973
sg25
I436515
sg26
I0
ssS'BANNANTINE JAMES M'
p162
(dp163
g3
I566
sg4
I0
sg5
I56301
sg6
I0
sg7
I-5104
sg8
S'james.bannantine@enron.com'
p164
sg10
I0
sg11
I-560222
sg12
I465
sg13
I0
sg14
I29
sg15
I864523
sg16
I0
sg17
I0
sg18
I5243487
sg19
I39
sg20
I0
sg21
I1757552
sg22
I0
sg23
I477
sg24
I916197
sg25
I4046157
sg26
F0.06890459363957598
ssS'DUNCAN JOHN H'
p165
(dp166
g3
I0
sg4
I0
sg5
I0
sg6
I0
sg7
I-25000
sg8
g29
sg10
I0
sg11
I0
sg12
I0
sg13
I0
sg14
I0
sg15
I0
sg16
I102492
sg17
I0
sg18
I371750
sg19
I0
sg20
I0
sg21
I0
sg22
I0
sg23
I0
sg24
I77492
sg25
I371750
sg26
I0
ssS'SHAPIRO RICHARD S'
p167
(dp168
g3
I15149
sg4
I0
sg5
I137767
sg6
I0
sg7
I0
sg8
S'richard.shapiro@enron.com'
p169
sg10
I0
sg11
I0
sg12
I4527
sg13
I0
sg14
I1215
sg15
I705
sg16
I0
sg17
I650000
sg18
I987001
sg19
I74
sg20
I65
sg21
I379164
sg22
F0.053497942386831275
sg23
I269076
sg24
I1057548
sg25
I607837
sg26
F0.0048848108786058485
ssS'SHERRIFF JOHN R'
p170
(dp171
g3
I3187
sg4
I0
sg5
I0
sg6
I0
sg7
I0
sg8
S'john.sherriff@enron.com'
p172
sg10
I554422
sg11
I0
sg12
I2103
sg13
I0
sg14
I92
sg15
I1852186
sg16
I0
sg17
I1500000
sg18
I3128982
sg19
I28
sg20
I23
sg21
I1293424
sg22
F0.25
sg23
I428780
sg24
I4335388
sg25
I1835558
sg26
F0.008785691873235017
ssS'SHELBY REX'
p173
(dp174
g3
I225
sg4
I0
sg5
I22884
sg6
I01
sg7
I-4167
sg8
S'rex.shelby@enron.com'
p175
sg10
I0
sg11
I0
sg12
I91
sg13
I0
sg14
I39
sg15
I1573324
sg16
I0
sg17
I200000
sg18
I2493616
sg19
I13
sg20
I14
sg21
I869220
sg22
F0.358974358974359
sg23
I211844
sg24
I2003885
sg25
I1624396
sg26
F0.057777777777777775
ssS'LEMAISTRE CHARLES'
p176
(dp177
g3
I0
sg4
I0
sg5
I0
sg6
I0
sg7
I-25000
sg8
g29
sg10
I0
sg11
I0
sg12
I0
sg13
I0
sg14
I0
sg15
I0
sg16
I112492
sg17
I0
sg18
I412878
sg19
I0
sg20
I0
sg21
I0
sg22
I0
sg23
I0
sg24
I87492
sg25
I412878
sg26
I0
ssS'DEFFNER JOSEPH M'
p178
(dp179
g3
I714
sg4
I0
sg5
I41626
sg6
I0
sg7
I0
sg8
S'joseph.deffner@enron.com'
p180
sg10
I335349
sg11
I0
sg12
I552
sg13
I0
sg14
I74
sg15
I25553
sg16
I0
sg17
I600000
sg18
I159211
sg19
I115
sg20
I4
sg21
I141833
sg22
F0.05405405405405406
sg23
I206121
sg24
I1208649
sg25
I17378
sg26
F0.16106442577030813
ssS'KISHKILL JOSEPH G'
p181
(dp182
g3
I0
sg4
I0
sg5
I116335
sg6
I0
sg7
I-51042
sg8
S'joe.kishkill@enron.com'
p183
sg10
I0
sg11
I0
sg12
I0
sg13
I0
sg14
I0
sg15
I465357
sg16
I0
sg17
I0
sg18
I1034346
sg19
I0
sg20
I0
sg21
I1034346
sg22
I0
sg23
I174246
sg24
I704896
sg25
I0
sg26
I0
ssS'WHALLEY LAWRENCE G'
p184
(dp185
g3
I6019
sg4
I0
sg5
I57838
sg6
I0
sg7
I0
sg8
S'greg.whalley@enron.com'
p186
sg10
I808346
sg11
I0
sg12
I3920
sg13
I0
sg14
I556
sg15
I301026
sg16
I0
sg17
I3000000
sg18
I6079137
sg19
I186
sg20
I24
sg21
I2796177
sg22
F0.04316546762589928
sg23
I510364
sg24
I4677574
sg25
I3282960
sg26
F0.03090214321315833
ssS'MCCONNELL MICHAEL S'
p187
(dp188
g3
I3329
sg4
I0
sg5
I81364
sg6
I0
sg7
I0
sg8
S'mike.mcconnell@enron.com'
p189
sg10
I554422
sg11
I0
sg12
I2189
sg13
I0
sg14
I2742
sg15
I540
sg16
I0
sg17
I1100000
sg18
I3101279
sg19
I92
sg20
I194
sg21
I1478269
sg22
F0.07075127644055434
sg23
I365038
sg24
I2101364
sg25
I1623010
sg26
F0.02763592670471613
ssS'PIRO JIM'
p190
(dp191
g3
I58
sg4
I0
sg5
I0
sg6
I0
sg7
I0
sg8
S'jim.piro@enron.com'
p192
sg10
I0
sg11
I0
sg12
I3
sg13
I0
sg14
I16
sg15
I0
sg16
I0
sg17
I0
sg18
I47304
sg19
I0
sg20
I1
sg21
I47304
sg22
F0.0625
sg23
I0
sg24
I0
sg25
I0
sg26
I0
ssS'DELAINEY DAVID W'
p193
(dp194
g3
I3093
sg4
I0
sg5
I86174
sg6
I01
sg7
I0
sg8
S'david.delainey@enron.com'
p195
sg10
I1294981
sg11
I0
sg12
I2097
sg13
I0
sg14
I3069
sg15
I1661
sg16
I0
sg17
I3000000
sg18
I3614261
sg19
I66
sg20
I609
sg21
I1323148
sg22
F0.198435972629521
sg23
I365163
sg24
I4747979
sg25
I2291113
sg26
F0.02133850630455868
ssS'SULLIVAN-SHAKLOVITZ COLLEEN'
p196
(dp197
g3
I0
sg4
I181993
sg5
I0
sg6
I0
sg7
I0
sg8
g29
sg10
I554422
sg11
I0
sg12
I0
sg13
I0
sg14
I0
sg15
I162
sg16
I0
sg17
I100000
sg18
I1362375
sg19
I0
sg20
I0
sg21
I0
sg22
I0
sg23
I162779
sg24
I999356
sg25
I1362375
sg26
I0
ssS'WROBEL BRUCE'
p198
(dp199
g3
I0
sg4
I0
sg5
I0
sg6
I0
sg7
I0
sg8
g29
sg10
I0
sg11
I0
sg12
I0
sg13
I0
sg14
I0
sg15
I0
sg16
I0
sg17
I0
sg18
I139130
sg19
I0
sg20
I0
sg21
I0
sg22
I0
sg23
I0
sg24
I0
sg25
I139130
sg26
I0
ssS'LINDHOLM TOD A'
p200
(dp201
g3
I0
sg4
I204075
sg5
I57727
sg6
I0
sg7
I0
sg8
S'tod.lindholm@enron.com'
p202
sg10
I175000
sg11
I0
sg12
I0
sg13
I0
sg14
I0
sg15
I2630
sg16
I0
sg17
I200000
sg18
I3064208
sg19
I0
sg20
I0
sg21
I514847
sg22
I0
sg23
I236457
sg24
I875889
sg25
I2549361
sg26
I0
ssS'MEYER JEROME J'
p203
(dp204
g3
I0
sg4
I0
sg5
I2151
sg6
I0
sg7
I-38346
sg8
g29
sg10
I0
sg11
I0
sg12
I0
sg13
I0
sg14
I0
sg15
I0
sg16
I38346
sg17
I0
sg18
I0
sg19
I0
sg20
I0
sg21
I0
sg22
I0
sg23
I0
sg24
I2151
sg25
I0
sg26
I0
ssS'LAY KENNETH L'
p205
(dp206
g3
I4273
sg4
I202911
sg5
I99832
sg6
I01
sg7
I-300000
sg8
S'kenneth.lay@enron.com'
p207
sg10
I3600000
sg11
I0
sg12
I2411
sg13
I81525000
sg14
I36
sg15
I10359729
sg16
I0
sg17
I7000000
sg18
I49110078
sg19
I123
sg20
I16
sg21
I14761694
sg22
F0.4444444444444444
sg23
I1072321
sg24
I103559793
sg25
I34348384
sg26
F0.028785396676807865
ssS'BUTTS ROBERT H'
p208
(dp209
g3
I0
sg4
I0
sg5
I9410
sg6
I0
sg7
I-75000
sg8
S'bob.butts@enron.com'
p210
sg10
I175000
sg11
I0
sg12
I0
sg13
I0
sg14
I0
sg15
I150656
sg16
I0
sg17
I750000
sg18
I417619
sg19
I0
sg20
I0
sg21
I417619
sg22
I0
sg23
I261516
sg24
I1271582
sg25
I0
sg26
I0
ssS'OLSON CINDY K'
p211
(dp212
g3
I1184
sg4
I77716
sg5
I63791
sg6
I0
sg7
I0
sg8
S'cindy.olson@enron.com'
p213
sg10
I100000
sg11
I0
sg12
I856
sg13
I0
sg14
I52
sg15
I972
sg16
I0
sg17
I750000
sg18
I2606763
sg19
I20
sg20
I15
sg21
I969729
sg22
F0.28846153846153844
sg23
I329078
sg24
I1321557
sg25
I1637034
sg26
F0.016891891891891893
ssS'MCDONALD REBECCA'
p214
(dp215
g3
I894
sg4
I0
sg5
I0
sg6
I0
sg7
I0
sg8
S'rebecca.mcdonald@enron.com'
p216
sg10
I0
sg11
I0
sg12
I720
sg13
I0
sg14
I13
sg15
I0
sg16
I0
sg17
I0
sg18
I1691366
sg19
I54
sg20
I1
sg21
I934065
sg22
F0.07692307692307693
sg23
I0
sg24
I0
sg25
I757301
sg26
F0.06040268456375839
ssS'CUMBERLAND MICHAEL S'
p217
(dp218
g3
I0
sg4
I0
sg5
I22344
sg6
I0
sg7
I0
sg8
g29
sg10
I275000
sg11
I0
sg12
I0
sg13
I0
sg14
I0
sg15
I713
sg16
I0
sg17
I325000
sg18
I207940
sg19
I0
sg20
I0
sg21
I207940
sg22
I0
sg23
I184899
sg24
I807956
sg25
I0
sg26
I0
ssS'GAHN ROBERT S'
p219
(dp220
g3
I0
sg4
I73122
sg5
I50080
sg6
I0
sg7
I-1042
sg8
g29
sg10
I0
sg11
I0
sg12
I0
sg13
I0
sg14
I0
sg15
I76547
sg16
I0
sg17
I509870
sg18
I318607
sg19
I0
sg20
I0
sg21
I235370
sg22
I0
sg23
I192008
sg24
I900585
sg25
I83237
sg26
I0
ssS'MCCLELLAN GEORGE'
p221
(dp222
g3
I1744
sg4
I0
sg5
I228763
sg6
I0
sg7
I-125000
sg8
S'george.mcclellan@enron.com'
p223
sg10
I0
sg11
I0
sg12
I1469
sg13
I0
sg14
I49
sg15
I51587
sg16
I0
sg17
I900000
sg18
I947861
sg19
I52
sg20
I0
sg21
I441096
sg22
I0
sg23
I263413
sg24
I1318763
sg25
I506765
sg26
F0.02981651376146789
ssS'HERMANN ROBERT J'
p224
(dp225
g3
I0
sg4
I0
sg5
I48357
sg6
I0
sg7
I-280000
sg8
S'robert.hermann@enron.com'
p226
sg10
I150000
sg11
I0
sg12
I0
sg13
I0
sg14
I0
sg15
I416441
sg16
I0
sg17
I700000
sg18
I668132
sg19
I0
sg20
I0
sg21
I480632
sg22
I0
sg23
I262663
sg24
I1297461
sg25
I187500
sg26
I0
ssS'SCRIMSHAW MATTHEW'
p227
(dp228
g3
I0
sg4
I0
sg5
I0
sg6
I0
sg7
I0
sg8
S'matthew.scrimshaw@enron.com'
p229
sg10
I0
sg11
I0
sg12
I0
sg13
I0
sg14
I0
sg15
I0
sg16
I0
sg17
I0
sg18
I759557
sg19
I0
sg20
I0
sg21
I0
sg22
I0
sg23
I0
sg24
I0
sg25
I759557
sg26
I0
ssS'GATHMANN WILLIAM D'
p230
(dp231
g3
I0
sg4
I0
sg5
I0
sg6
I0
sg7
I0
sg8
g29
sg10
I0
sg11
I-72419
sg12
I0
sg13
I0
sg14
I0
sg15
I0
sg16
I0
sg17
I0
sg18
I1945360
sg19
I0
sg20
I0
sg21
I264013
sg22
I0
sg23
I0
sg24
I0
sg25
I1753766
sg26
I0
ssS'HAEDICKE MARK E'
p232
(dp233
g3
I4009
sg4
I2157527
sg5
I76169
sg6
I0
sg7
I-934484
sg8
S'mark.haedicke@enron.com'
p234
sg10
I983346
sg11
I-329825
sg12
I1847
sg13
I0
sg14
I1941
sg15
I52382
sg16
I0
sg17
I1150000
sg18
I803094
sg19
I180
sg20
I61
sg21
I524169
sg22
F0.03142709943328181
sg23
I374125
sg24
I3859065
sg25
I608750
sg26
F0.04489897730107259
ssS'BOWEN JR RAYMOND M'
p235
(dp236
g3
I1858
sg4
I0
sg5
I65907
sg6
I01
sg7
I-833
sg8
S'raymond.bowen@enron.com'
p237
sg10
I974293
sg11
I0
sg12
I1593
sg13
I0
sg14
I27
sg15
I1621
sg16
I0
sg17
I1350000
sg18
I252055
sg19
I140
sg20
I15
sg21
I252055
sg22
F0.5555555555555556
sg23
I278601
sg24
I2669589
sg25
I0
sg26
F0.07534983853606028
ssS'GILLIS JOHN'
p238
(dp239
g3
I0
sg4
I0
sg5
I0
sg6
I0
sg7
I0
sg8
g29
sg10
I0
sg11
I0
sg12
I0
sg13
I0
sg14
I0
sg15
I0
sg16
I0
sg17
I0
sg18
I85641
sg19
I0
sg20
I0
sg21
I75838
sg22
I0
sg23
I0
sg24
I0
sg25
I9803
sg26
I0
ssS'FITZGERALD JAY L'
p240
(dp241
g3
I936
sg4
I0
sg5
I23870
sg6
I0
sg7
I0
sg8
S'jay.fitzgerald@enron.com'
p242
sg10
I556416
sg11
I0
sg12
I723
sg13
I0
sg14
I16
sg15
I285414
sg16
I0
sg17
I350000
sg18
I1621236
sg19
I1
sg20
I8
sg21
I956775
sg22
F0.5
sg23
I199157
sg24
I1414857
sg25
I664461
sg26
F0.0010683760683760685
ssS'MORAN MICHAEL P'
p243
(dp244
g3
I672
sg4
I0
sg5
I0
sg6
I0
sg7
I0
sg8
S'michael.moran@enron.com'
p245
sg10
I0
sg11
I0
sg12
I127
sg13
I0
sg14
I19
sg15
I0
sg16
I0
sg17
I0
sg18
I221141
sg19
I0
sg20
I0
sg21
I161602
sg22
I0
sg23
I0
sg24
I0
sg25
I59539
sg26
I0
ssS'REDMOND BRIAN L'
p246
(dp247
g3
I1671
sg4
I0
sg5
I14689
sg6
I0
sg7
I0
sg8
S'brian.redmond@enron.com'
p248
sg10
I0
sg11
I0
sg12
I1063
sg13
I0
sg14
I221
sg15
I0
sg16
I0
sg17
I0
sg18
I7890324
sg19
I204
sg20
I49
sg21
I381285
sg22
F0.22171945701357465
sg23
I96840
sg24
I111529
sg25
I7509039
sg26
F0.12208258527827648
ssS'BAZELIDES PHILIP J'
p249
(dp250
g3
I0
sg4
I684694
sg5
I0
sg6
I0
sg7
I0
sg8
g29
sg10
I93750
sg11
I0
sg12
I0
sg13
I0
sg14
I0
sg15
I874
sg16
I0
sg17
I0
sg18
I1599641
sg19
I0
sg20
I0
sg21
I0
sg22
I0
sg23
I80818
sg24
I860136
sg25
I1599641
sg26
I0
ssS'BELDEN TIMOTHY N'
p251
(dp252
g3
I7991
sg4
I2144013
sg5
I17355
sg6
I01
sg7
I-2334434
sg8
S'tim.belden@enron.com'
p253
sg10
I0
sg11
I0
sg12
I5521
sg13
I0
sg14
I484
sg15
I210698
sg16
I0
sg17
I5249999
sg18
I1110705
sg19
I228
sg20
I108
sg21
I157569
sg22
F0.2231404958677686
sg23
I213999
sg24
I5501630
sg25
I953136
sg26
F0.028532098610937303
ssS'DURAN WILLIAM D'
p254
(dp255
g3
I904
sg4
I0
sg5
I25785
sg6
I0
sg7
I0
sg8
S'w.duran@enron.com'
p256
sg10
I1105218
sg11
I0
sg12
I599
sg13
I0
sg14
I12
sg15
I1568
sg16
I0
sg17
I750000
sg18
I1640910
sg19
I106
sg20
I3
sg21
I189041
sg22
F0.25
sg23
I210692
sg24
I2093263
sg25
I1451869
sg26
F0.1172566371681416
ssS'THORN TERENCE H'
p257
(dp258
g3
I266
sg4
I16586
sg5
I46145
sg6
I0
sg7
I0
sg8
S'terence.thorn@enron.com'
p259
sg10
I200000
sg11
I0
sg12
I73
sg13
I0
sg14
I41
sg15
I426629
sg16
I0
sg17
I0
sg18
I4817796
sg19
I0
sg20
I0
sg21
I365320
sg22
I0
sg23
I222093
sg24
I911453
sg25
I4452476
sg26
I0
ssS'FASTOW ANDREW S'
p260
(dp261
g3
I0
sg4
I0
sg5
I55921
sg6
I01
sg7
I-1386055
sg8
S'andrew.fastow@enron.com'
p262
sg10
I1736055
sg11
I0
sg12
I0
sg13
I0
sg14
I0
sg15
I277464
sg16
I0
sg17
I1300000
sg18
I1794412
sg19
I0
sg20
I0
sg21
I1794412
sg22
I0
sg23
I440698
sg24
I2424083
sg25
I0
sg26
I0
ssS'FOY JOE'
p263
(dp264
g3
I57
sg4
I181755
sg5
I0
sg6
I0
sg7
I0
sg8
S'tracy.foy@enron.com'
p265
sg10
I0
sg11
I0
sg12
I2
sg13
I0
sg14
I13
sg15
I0
sg16
I0
sg17
I0
sg18
I343434
sg19
I0
sg20
I0
sg21
I0
sg22
I0
sg23
I0
sg24
I181755
sg25
I343434
sg26
I0
ssS'CALGER CHRISTOPHER F'
p266
(dp267
g3
I2598
sg4
I0
sg5
I35818
sg6
I01
sg7
I-262500
sg8
S'christopher.calger@enron.com'
p268
sg10
I375304
sg11
I0
sg12
I2188
sg13
I0
sg14
I144
sg15
I486
sg16
I0
sg17
I1250000
sg18
I126027
sg19
I199
sg20
I25
sg21
I126027
sg22
F0.1736111111111111
sg23
I240189
sg24
I1639297
sg25
I0
sg26
F0.07659738260200154
ssS'RICE KENNETH D'
p269
(dp270
g3
I905
sg4
I0
sg5
I46950
sg6
I01
sg7
I-3504386
sg8
S'ken.rice@enron.com'
p271
sg10
I1617011
sg11
I0
sg12
I864
sg13
I0
sg14
I18
sg15
I174839
sg16
I0
sg17
I1750000
sg18
I22542539
sg19
I42
sg20
I4
sg21
I2748364
sg22
F0.2222222222222222
sg23
I420636
sg24
I505050
sg25
I19794175
sg26
F0.04640883977900553
ssS'KAMINSKI WINCENTY J'
p272
(dp273
g3
I4607
sg4
I0
sg5
I83585
sg6
I0
sg7
I0
sg8
S'vince.kaminski@enron.com'
p274
sg10
I323466
sg11
I0
sg12
I583
sg13
I0
sg14
I14368
sg15
I4669
sg16
I0
sg17
I400000
sg18
I976037
sg19
I41
sg20
I171
sg21
I126027
sg22
F0.011901447661469933
sg23
I275101
sg24
I1086821
sg25
I850010
sg26
F0.008899500759713479
ssS'LOCKHART EUGENE E'
p275
(dp276
g3
I0
sg4
I0
sg5
I0
sg6
I0
sg7
I0
sg8
g29
sg10
I0
sg11
I0
sg12
I0
sg13
I0
sg14
I0
sg15
I0
sg16
I0
sg17
I0
sg18
I0
sg19
I0
sg20
I0
sg21
I0
sg22
I0
sg23
I0
sg24
I0
sg25
I0
sg26
I0
ssS'COX DAVID'
p277
(dp278
g3
I102
sg4
I0
sg5
I27861
sg6
I0
sg7
I-41250
sg8
S'chip.cox@enron.com'
p279
sg10
I0
sg11
I0
sg12
I71
sg13
I0
sg14
I33
sg15
I494
sg16
I0
sg17
I800000
sg18
I495633
sg19
I0
sg20
I4
sg21
I378082
sg22
F0.12121212121212122
sg23
I314288
sg24
I1101393
sg25
I117551
sg26
I0
ssS'OVERDYKE JR JERE C'
p280
(dp281
g3
I0
sg4
I0
sg5
I18834
sg6
I0
sg7
I0
sg8
S'jere.overdyke@enron.com'
p282
sg10
I135836
sg11
I0
sg12
I0
sg13
I0
sg14
I0
sg15
I176
sg16
I0
sg17
I0
sg18
I7307594
sg19
I0
sg20
I0
sg21
I2041016
sg22
I0
sg23
I94941
sg24
I249787
sg25
I5266578
sg26
I0
ssS'PEREIRA PAULO V. FERRAZ'
p283
(dp284
g3
I0
sg4
I0
sg5
I27942
sg6
I0
sg7
I-101250
sg8
g29
sg10
I0
sg11
I0
sg12
I0
sg13
I0
sg14
I0
sg15
I0
sg16
I101250
sg17
I0
sg18
I0
sg19
I0
sg20
I0
sg21
I0
sg22
I0
sg23
I0
sg24
I27942
sg25
I0
sg26
I0
ssS'STABLER FRANK'
p285
(dp286
g3
I0
sg4
I0
sg5
I16514
sg6
I0
sg7
I0
sg8
S'frank.stabler@enron.com'
p287
sg10
I0
sg11
I0
sg12
I0
sg13
I0
sg14
I0
sg15
I356071
sg16
I0
sg17
I500000
sg18
I511734
sg19
I0
sg20
I0
sg21
I511734
sg22
I0
sg23
I239502
sg24
I1112087
sg25
I0
sg26
I0
ssS'SKILLING JEFFREY K'
p288
(dp289
g3
I3627
sg4
I0
sg5
I29336
sg6
I01
sg7
I0
sg8
S'jeff.skilling@enron.com'
p290
sg10
I1920000
sg11
I0
sg12
I2042
sg13
I0
sg14
I108
sg15
I22122
sg16
I0
sg17
I5600000
sg18
I26093672
sg19
I88
sg20
I30
sg21
I6843672
sg22
F0.2777777777777778
sg23
I1111258
sg24
I8682716
sg25
I19250000
sg26
F0.0242624758753791
ssS'BLAKE JR. NORMAN P'
p291
(dp292
g3
I0
sg4
I0
sg5
I1279
sg6
I0
sg7
I-113784
sg8
g29
sg10
I0
sg11
I0
sg12
I0
sg13
I0
sg14
I0
sg15
I0
sg16
I113784
sg17
I0
sg18
I0
sg19
I0
sg20
I0
sg21
I0
sg22
I0
sg23
I0
sg24
I1279
sg25
I0
sg26
I0
ssS'SHERRICK JEFFREY B'
p293
(dp294
g3
I613
sg4
I0
sg5
I0
sg6
I0
sg7
I0
sg8
S'jeffrey.sherrick@enron.com'
p295
sg10
I0
sg11
I0
sg12
I583
sg13
I0
sg14
I25
sg15
I0
sg16
I0
sg17
I0
sg18
I1832468
sg19
I39
sg20
I18
sg21
I405999
sg22
F0.72
sg23
I0
sg24
I0
sg25
I1426469
sg26
F0.0636215334420881
ssS'PRENTICE JAMES'
p296
(dp297
g3
I0
sg4
I564348
sg5
I0
sg6
I0
sg7
I0
sg8
S'james.prentice@enron.com'
p298
sg10
I0
sg11
I0
sg12
I0
sg13
I0
sg14
I0
sg15
I0
sg16
I0
sg17
I0
sg18
I1095040
sg19
I0
sg20
I0
sg21
I208809
sg22
I0
sg23
I0
sg24
I564348
sg25
I886231
sg26
I0
ssS'GRAY RODNEY'
p299
(dp300
g3
I0
sg4
I93585
sg5
I0
sg6
I0
sg7
I0
sg8
g29
sg10
I365625
sg11
I0
sg12
I0
sg13
I0
sg14
I0
sg15
I680833
sg16
I0
sg17
I0
sg18
I0
sg19
I0
sg20
I0
sg21
I0
sg22
I0
sg23
I6615
sg24
I1146658
sg25
I0
sg26
I0
ssS'PICKERING MARK R'
p301
(dp302
g3
I898
sg4
I0
sg5
I31653
sg6
I0
sg7
I0
sg8
S'mark.pickering@enron.com'
p303
sg10
I0
sg11
I0
sg12
I728
sg13
I400000
sg14
I67
sg15
I0
sg16
I0
sg17
I300000
sg18
I28798
sg19
I7
sg20
I0
sg21
I0
sg22
I0
sg23
I655037
sg24
I1386690
sg25
I28798
sg26
F0.0077951002227171495
ssS'NOLES JAMES L'
p304
(dp305
g3
I0
sg4
I774401
sg5
I0
sg6
I0
sg7
I0
sg8
g29
sg10
I0
sg11
I-94556
sg12
I0
sg13
I0
sg14
I0
sg15
I0
sg16
I0
sg17
I0
sg18
I368705
sg19
I0
sg20
I0
sg21
I463261
sg22
I0
sg23
I0
sg24
I774401
sg25
I0
sg26
I0
ssS'KEAN STEVEN J'
p306
(dp307
g3
I12754
sg4
I0
sg5
I41953
sg6
I0
sg7
I0
sg8
S'steven.kean@enron.com'
p308
sg10
I300000
sg11
I0
sg12
I3639
sg13
I0
sg14
I6759
sg15
I1231
sg16
I0
sg17
I1000000
sg18
I6153642
sg19
I140
sg20
I387
sg21
I4131594
sg22
F0.05725699067909454
sg23
I404338
sg24
I1747522
sg25
I2022048
sg26
F0.010976948408342482
ssS'FOWLER PEGGY'
p309
(dp310
g3
I517
sg4
I0
sg5
I0
sg6
I0
sg7
I0
sg8
S'kulvinder.fowler@enron.com'
p311
sg10
I0
sg11
I0
sg12
I10
sg13
I0
sg14
I36
sg15
I0
sg16
I0
sg17
I0
sg18
I1884748
sg19
I0
sg20
I0
sg21
I560170
sg22
I0
sg23
I0
sg24
I0
sg25
I1324578
sg26
I0
ssS'WASAFF GEORGE'
p312
(dp313
g3
I400
sg4
I831299
sg5
I0
sg6
I0
sg7
I-583325
sg8
S'george.wasaff@enron.com'
p314
sg10
I200000
sg11
I0
sg12
I337
sg13
I0
sg14
I30
sg15
I1425
sg16
I0
sg17
I325000
sg18
I2056427
sg19
I22
sg20
I7
sg21
I388167
sg22
F0.23333333333333334
sg23
I259996
sg24
I1034395
sg25
I1668260
sg26
F0.055
ssS'WHITE JR THOMAS E'
p315
(dp316
g3
I0
sg4
I0
sg5
I81353
sg6
I0
sg7
I0
sg8
S'thomas.white@enron.com'
p317
sg10
I0
sg11
I0
sg12
I0
sg13
I0
sg14
I0
sg15
I1085463
sg16
I0
sg17
I450000
sg18
I15144123
sg19
I0
sg20
I0
sg21
I13847074
sg22
I0
sg23
I317543
sg24
I1934359
sg25
I1297049
sg26
I0
ssS'CHRISTODOULOU DIOMEDES'
p318
(dp319
g3
I0
sg4
I0
sg5
I0
sg6
I0
sg7
I0
sg8
S'diomedes.christodoulou@enron.com'
p320
sg10
I0
sg11
I0
sg12
I0
sg13
I0
sg14
I0
sg15
I0
sg16
I0
sg17
I0
sg18
I6077885
sg19
I0
sg20
I0
sg21
I950730
sg22
I0
sg23
I0
sg24
I0
sg25
I5127155
sg26
I0
ssS'ALLEN PHILLIP K'
p321
(dp322
g3
I2902
sg4
I2869717
sg5
I13868
sg6
I0
sg7
I-3081055
sg8
S'phillip.allen@enron.com'
p323
sg10
I304805
sg11
I-126027
sg12
I1407
sg13
I0
sg14
I2195
sg15
I152
sg16
I0
sg17
I4175000
sg18
I1729541
sg19
I47
sg20
I65
sg21
I126027
sg22
F0.029612756264236904
sg23
I201955
sg24
I4484442
sg25
I1729541
sg26
F0.016195727084769126
ssS'SHARP VICTORIA T'
p324
(dp325
g3
I3136
sg4
I187469
sg5
I116337
sg6
I0
sg7
I0
sg8
S'vicki.sharp@enron.com'
p326
sg10
I422158
sg11
I0
sg12
I2477
sg13
I0
sg14
I136
sg15
I2401
sg16
I0
sg17
I600000
sg18
I494136
sg19
I24
sg20
I6
sg21
I213063
sg22
F0.04411764705882353
sg23
I248146
sg24
I1576511
sg25
I281073
sg26
F0.007653061224489796
ssS'JAEDICKE ROBERT'
p327
(dp328
g3
I0
sg4
I0
sg5
I0
sg6
I0
sg7
I-25000
sg8
g29
sg10
I0
sg11
I-44093
sg12
I0
sg13
I0
sg14
I0
sg15
I0
sg16
I108750
sg17
I0
sg18
I431750
sg19
I0
sg20
I0
sg21
I44093
sg22
I0
sg23
I0
sg24
I83750
sg25
I431750
sg26
I0
ssS'WINOKUR JR. HERBERT S'
p329
(dp330
g3
I0
sg4
I0
sg5
I1413
sg6
I0
sg7
I-25000
sg8
g29
sg10
I0
sg11
I0
sg12
I0
sg13
I0
sg14
I0
sg15
I0
sg16
I108579
sg17
I0
sg18
I0
sg19
I0
sg20
I0
sg21
I0
sg22
I0
sg23
I0
sg24
I84992
sg25
I0
sg26
I0
ssS'BROWN MICHAEL'
p331
(dp332
g3
I1486
sg4
I0
sg5
I49288
sg6
I0
sg7
I0
sg8
S'michael.brown@enron.com'
p333
sg10
I0
sg11
I0
sg12
I761
sg13
I0
sg14
I41
sg15
I0
sg16
I0
sg17
I0
sg18
I0
sg19
I13
sg20
I1
sg21
I0
sg22
F0.024390243902439025
sg23
I0
sg24
I49288
sg25
I0
sg26
F0.008748317631224764
ssS'BADUM JAMES P'
p334
(dp335
g3
I0
sg4
I178980
sg5
I3486
sg6
I0
sg7
I0
sg8
g29
sg10
I0
sg11
I0
sg12
I0
sg13
I0
sg14
I0
sg15
I0
sg16
I0
sg17
I0
sg18
I257817
sg19
I0
sg20
I0
sg21
I0
sg22
I0
sg23
I0
sg24
I182466
sg25
I257817
sg26
I0
ssS'HUGHES JAMES A'
p336
(dp337
g3
I719
sg4
I0
sg5
I0
sg6
I0
sg7
I0
sg8
S'james.hughes@enron.com'
p338
sg10
I0
sg11
I0
sg12
I589
sg13
I0
sg14
I34
sg15
I0
sg16
I0
sg17
I0
sg18
I1118394
sg19
I35
sg20
I5
sg21
I363428
sg22
F0.14705882352941177
sg23
I0
sg24
I0
sg25
I754966
sg26
F0.048678720445062586
ssS'REYNOLDS LAWRENCE'
p339
(dp340
g3
I0
sg4
I51365
sg5
I8409
sg6
I0
sg7
I-200000
sg8
g29
sg10
I156250
sg11
I-140264
sg12
I0
sg13
I0
sg14
I0
sg15
I202052
sg16
I0
sg17
I100000
sg18
I4221891
sg19
I0
sg20
I0
sg21
I201483
sg22
I0
sg23
I76399
sg24
I394475
sg25
I4160672
sg26
I0
ssS'DIMICHELE RICHARD G'
p341
(dp342
g3
I0
sg4
I0
sg5
I35812
sg6
I0
sg7
I0
sg8
S'richard.dimichele@enron.com'
p343
sg10
I694862
sg11
I0
sg12
I0
sg13
I0
sg14
I0
sg15
I374689
sg16
I0
sg17
I1000000
sg18
I8317782
sg19
I0
sg20
I0
sg21
I126027
sg22
I0
sg23
I262788
sg24
I2368151
sg25
I8191755
sg26
I0
ssS'BHATNAGAR SANJAY'
p344
(dp345
g3
I523
sg4
I0
sg5
I0
sg6
I0
sg7
I0
sg8
S'sanjay.bhatnagar@enron.com'
p346
sg10
I0
sg11
I15456290
sg12
I463
sg13
I0
sg14
I29
sg15
I137864
sg16
I137864
sg17
I0
sS'total_stock_value'
p347
I0
sg19
I0
sg20
I1
sg21
I-2604490
sg22
F0.034482758620689655
sg23
I0
sg24
I15456290
sg25
I2604490
sg26
I0
ssS'CARTER REBECCA C'
p348
(dp349
g3
I312
sg4
I0
sg5
I0
sg6
I0
sg7
I-159792
sg8
S'rebecca.carter@enron.com'
p350
sg10
I75000
sg11
I-307301
sg12
I196
sg13
I0
sg14
I15
sg15
I540
sg16
I0
sg17
I300000
sg18
I0
sg19
I29
sg20
I7
sg21
I307301
sg22
F0.4666666666666667
sg23
I261809
sg24
I477557
sg25
I0
sg26
F0.09294871794871795
ssS'BUCHANAN HAROLD G'
p351
(dp352
g3
I1088
sg4
I0
sg5
I600
sg6
I0
sg7
I0
sg8
S'john.buchanan@enron.com'
p353
sg10
I304805
sg11
I0
sg12
I23
sg13
I0
sg14
I125
sg15
I1215
sg16
I0
sg17
I500000
sg18
I1014505
sg19
I0
sg20
I0
sg21
I189041
sg22
I0
sg23
I248017
sg24
I1054637
sg25
I825464
sg26
I0
ssS'YEAP SOON'
p354
(dp355
g3
I0
sg4
I0
sg5
I55097
sg6
I0
sg7
I0
sg8
g29
sg10
I0
sg11
I0
sg12
I0
sg13
I0
sg14
I0
sg15
I0
sg16
I0
sg17
I0
sg18
I192758
sg19
I0
sg20
I0
sg21
I0
sg22
I0
sg23
I0
sg24
I55097
sg25
I192758
sg26
I0
ssS'MURRAY JULIA H'
p356
(dp357
g3
I2192
sg4
I0
sg5
I57580
sg6
I0
sg7
I0
sg8
S'julia.murray@enron.com'
p358
sg10
I125000
sg11
I0
sg12
I395
sg13
I0
sg14
I45
sg15
I330
sg16
I0
sg17
I400000
sg18
I597461
sg19
I11
sg20
I2
sg21
I196983
sg22
F0.044444444444444446
sg23
I229284
sg24
I812194
sg25
I400478
sg26
F0.005018248175182482
ssS'GARLAND C KEVIN'
p359
(dp360
g3
I209
sg4
I0
sg5
I48405
sg6
I0
sg7
I0
sg8
S'kevin.garland@enron.com'
p361
sg10
I375304
sg11
I0
sg12
I178
sg13
I0
sg14
I44
sg15
I60814
sg16
I0
sg17
I850000
sg18
I896153
sg19
I10
sg20
I27
sg21
I259907
sg22
F0.6136363636363636
sg23
I231946
sg24
I1566469
sg25
I636246
sg26
F0.04784688995215311
ssS'DODSON KEITH'
p362
(dp363
g3
I176
sg4
I0
sg5
I28164
sg6
I0
sg7
I0
sg8
S'keith.dodson@enron.com'
p364
sg10
I0
sg11
I0
sg12
I114
sg13
I0
sg14
I14
sg15
I774
sg16
I0
sg17
I70000
sg18
I0
sg19
I10
sg20
I3
sg21
I0
sg22
F0.21428571428571427
sg23
I221003
sg24
I319941
sg25
I0
sg26
F0.056818181818181816
ssS'YEAGER F SCOTT'
p365
(dp366
g3
I0
sg4
I0
sg5
I53947
sg6
I01
sg7
I0
sg8
S'scott.yeager@enron.com'
p367
sg10
I0
sg11
I0
sg12
I0
sg13
I0
sg14
I0
sg15
I147950
sg16
I0
sg17
I0
sg18
I11884758
sg19
I0
sg20
I0
sg21
I3576206
sg22
I0
sg23
I158403
sg24
I360300
sg25
I8308552
sg26
I0
ssS'HIRKO JOSEPH'
p368
(dp369
g3
I0
sg4
I10259
sg5
I77978
sg6
I01
sg7
I0
sg8
S'joe.hirko@enron.com'
p370
sg10
I0
sg11
I0
sg12
I0
sg13
I0
sg14
I0
sg15
I2856
sg16
I0
sg17
I0
sg18
I30766064
sg19
I0
sg20
I0
sg21
I0
sg22
I0
sg23
I0
sg24
I91093
sg25
I30766064
sg26
I0
ssS'DIETRICH JANET R'
p371
(dp372
g3
I2572
sg4
I0
sg5
I3475
sg6
I0
sg7
I0
sg8
S'janet.dietrich@enron.com'
p373
sg10
I556416
sg11
I0
sg12
I1902
sg13
I0
sg14
I63
sg15
I473
sg16
I0
sg17
I600000
sg18
I1865087
sg19
I305
sg20
I14
sg21
I315068
sg22
F0.2222222222222222
sg23
I250100
sg24
I1410464
sg25
I1550019
sg26
F0.11858475894245724
ssS'DERRICK JR. JAMES V'
p374
(dp375
g3
I2181
sg4
I0
sg5
I51124
sg6
I0
sg7
I-1284000
sg8
S'james.derrick@enron.com'
p376
sg10
I484000
sg11
I-1787380
sg12
I1401
sg13
I0
sg14
I909
sg15
I7482
sg16
I0
sg17
I800000
sg18
I8831913
sg19
I64
sg20
I20
sg21
I1787380
sg22
F0.022002200220022004
sg23
I492375
sg24
I550981
sg25
I8831913
sg26
F0.029344337459880788
ssS'FREVERT MARK A'
p377
(dp378
g3
I3275
sg4
I6426990
sg5
I86987
sg6
I0
sg7
I-3367011
sg8
S'mark.frevert@enron.com'
p379
sg10
I1617011
sg11
I0
sg12
I2979
sg13
I2000000
sg14
I21
sg15
I7427621
sg16
I0
sg17
I2000000
sg18
I14622185
sg19
I242
sg20
I6
sg21
I4188667
sg22
F0.2857142857142857
sg23
I1060932
sg24
I17252530
sg25
I10433518
sg26
F0.07389312977099237
ssS'PAI LOU L'
p380
(dp381
g3
I0
sg4
I0
sg5
I32047
sg6
I0
sg7
I0
sg8
S'lou.pai@enron.com'
p382
sg10
I0
sg11
I0
sg12
I0
sg13
I0
sg14
I0
sg15
I1829457
sg16
I0
sg17
I1000000
sg18
I23817930
sg19
I0
sg20
I0
sg21
I8453763
sg22
I0
sg23
I261879
sg24
I3123383
sg25
I15364167
sg26
I0
ssS'BAY FRANKLIN R'
p383
(dp384
g3
I0
sg4
I260455
sg5
I129142
sg6
I0
sg7
I-201641
sg8
S'frank.bay@enron.com'
p385
sg10
I0
sg11
I-82782
sg12
I0
sg13
I0
sg14
I0
sg15
I69
sg16
I0
sg17
I400000
sg18
I63014
sg19
I0
sg20
I0
sg21
I145796
sg22
I0
sg23
I239671
sg24
I827696
sg25
I0
sg26
I0
ssS'HAYSLETT RODERICK J'
p386
(dp387
g3
I2649
sg4
I0
sg5
I0
sg6
I0
sg7
I0
sg8
S'rod.hayslett@enron.com'
p388
sg10
I0
sg11
I0
sg12
I571
sg13
I0
sg14
I1061
sg15
I0
sg16
I0
sg17
I0
sg18
I346663
sg19
I35
sg20
I38
sg21
I346663
sg22
F0.03581526861451461
sg23
I0
sg24
I0
sg25
I0
sg26
F0.01321253303133258
ssS'FUGH JOHN L'
p389
(dp390
g3
I0
sg4
I50591
sg5
I0
sg6
I0
sg7
I0
sg8
g29
sg10
I0
sg11
I0
sg12
I0
sg13
I0
sg14
I0
sg15
I0
sg16
I0
sg17
I0
sg18
I176378
sg19
I0
sg20
I0
sg21
I0
sg22
I0
sg23
I0
sg24
I50591
sg25
I176378
sg26
I0
ssS'FALLON JAMES B'
p391
(dp392
g3
I1755
sg4
I0
sg5
I95924
sg6
I0
sg7
I0
sg8
S'jim.fallon@enron.com'
p393
sg10
I374347
sg11
I0
sg12
I1604
sg13
I0
sg14
I75
sg15
I401481
sg16
I0
sg17
I2500000
sg18
I2332399
sg19
I42
sg20
I37
sg21
I1392142
sg22
F0.49333333333333335
sg23
I304588
sg24
I3676340
sg25
I940257
sg26
F0.023931623931623933
ssS'KOENIG MARK E'
p394
(dp395
g3
I2374
sg4
I0
sg5
I127017
sg6
I01
sg7
I0
sg8
S'mark.koenig@enron.com'
p396
sg10
I300000
sg11
I0
sg12
I2271
sg13
I0
sg14
I61
sg15
I150458
sg16
I0
sg17
I700000
sg18
I1920055
sg19
I53
sg20
I15
sg21
I1248318
sg22
F0.2459016393442623
sg23
I309946
sg24
I1587421
sg25
I671737
sg26
F0.02232518955349621
ssS'SAVAGE FRANK'
p397
(dp398
g3
I0
sg4
I0
sg5
I0
sg6
I0
sg7
I-121284
sg8
g29
sg10
I0
sg11
I0
sg12
I0
sg13
I0
sg14
I0
sg15
I0
sg16
I125034
sg17
I0
sg18
I0
sg19
I0
sg20
I0
sg21
I0
sg22
I0
sg23
I0
sg24
I3750
sg25
I0
sg26
I0
ssS'IZZO LAWRENCE L'
p399
(dp400
g3
I496
sg4
I0
sg5
I28093
sg6
I0
sg7
I0
sg8
S'larry.izzo@enron.com'
p401
sg10
I312500
sg11
I0
sg12
I437
sg13
I0
sg14
I19
sg15
I1553729
sg16
I0
sg17
I0
sg18
I5819980
sg19
I28
sg20
I5
sg21
I3654808
sg22
F0.2631578947368421
sg23
I85274
sg24
I1979596
sg25
I2165172
sg26
F0.056451612903225805
ssS'TILNEY ELIZABETH A'
p402
(dp403
g3
I460
sg4
I0
sg5
I0
sg6
I0
sg7
I-575000
sg8
S'elizabeth.tilney@enron.com'
p404
sg10
I275000
sg11
I0
sg12
I379
sg13
I0
sg14
I19
sg15
I152055
sg16
I0
sg17
I300000
sg18
I1168042
sg19
I10
sg20
I11
sg21
I576792
sg22
F0.5789473684210527
sg23
I247338
sg24
I399393
sg25
I591250
sg26
F0.021739130434782608
ssS'MARTIN AMANDA K'
p405
(dp406
g3
I1522
sg4
I85430
sg5
I8211
sg6
I0
sg7
I0
sg8
S'a..martin@enron.com'
p407
sg10
I5145434
sg11
I0
sg12
I477
sg13
I0
sg14
I230
sg15
I2818454
sg16
I0
sg17
I0
sg18
I2070306
sg19
I8
sg20
I0
sg21
I0
sg22
I0
sg23
I349487
sg24
I8407016
sg25
I2070306
sg26
F0.005256241787122208
ssS'BUY RICHARD B'
p408
(dp409
g3
I3523
sg4
I649584
sg5
I0
sg6
I0
sg7
I-694862
sg8
S'rick.buy@enron.com'
p410
sg10
I769862
sg11
I0
sg12
I2333
sg13
I0
sg14
I1053
sg15
I400572
sg16
I0
sg17
I900000
sg18
I3444470
sg19
I156
sg20
I71
sg21
I901657
sg22
F0.06742640075973409
sg23
I330546
sg24
I2355702
sg25
I2542813
sg26
F0.04428044280442804
ssS'GRAMM WENDY L'
p411
(dp412
g3
I0
sg4
I0
sg5
I0
sg6
I0
sg7
I0
sg8
g29
sg10
I0
sg11
I0
sg12
I0
sg13
I0
sg14
I0
sg15
I0
sg16
I119292
sg17
I0
sg18
I0
sg19
I0
sg20
I0
sg21
I0
sg22
I0
sg23
I0
sg24
I119292
sg25
I0
sg26
I0
ssS'CAUSEY RICHARD A'
p413
(dp414
g3
I1892
sg4
I0
sg5
I30674
sg6
I01
sg7
I-235000
sg8
S'richard.causey@enron.com'
p415
sg10
I350000
sg11
I0
sg12
I1585
sg13
I0
sg14
I49
sg15
I307895
sg16
I0
sg17
I1000000
sg18
I2502063
sg19
I58
sg20
I12
sg21
I2502063
sg22
F0.24489795918367346
sg23
I415189
sg24
I1868758
sg25
I0
sg26
F0.0306553911205074
ssS'TAYLOR MITCHELL S'
p416
(dp417
g3
I533
sg4
I227449
sg5
I0
sg6
I0
sg7
I0
sg8
S'mitchell.taylor@enron.com'
p418
sg10
I0
sg11
I0
sg12
I300
sg13
I0
sg14
I29
sg15
I0
sg16
I0
sg17
I600000
sg18
I3745048
sg19
I0
sg20
I0
sg21
I563798
sg22
I0
sg23
I265214
sg24
I1092663
sg25
I3181250
sg26
I0
ssS'DONAHUE JR JEFFREY M'
p419
(dp420
g3
I865
sg4
I0
sg5
I96268
sg6
I0
sg7
I-300000
sg8
S'jeff.donahue@enron.com'
p421
sg10
I0
sg11
I0
sg12
I772
sg13
I0
sg14
I22
sg15
I891
sg16
I0
sg17
I800000
sg18
I1080988
sg19
I188
sg20
I11
sg21
I315068
sg22
F0.5
sg23
I278601
sg24
I875760
sg25
I765920
sg26
F0.21734104046242775
ssS'GLISAN JR BEN F'
p422
(dp423
g3
I873
sg4
I0
sg5
I125978
sg6
I01
sg7
I0
sg8
S'ben.glisan@enron.com'
p424
sg10
I71023
sg11
I0
sg12
I874
sg13
I0
sg14
I16
sg15
I200308
sg16
I0
sg17
I600000
sg18
I778546
sg19
I52
sg20
I6
sg21
I393818
sg22
F0.375
sg23
I274975
sg24
I1272284
sg25
I384728
sg26
F0.05956471935853379
ss.