(lp0
S'poi'
p1
aS'total_stock_value'
p2
aS'exercised_stock_options'
p3
aS'bonus'
p4
aS'deferred_income'
p5
aS'long_term_incentive'
p6
aS'restricted_stock'
p7
aS'salary'
p8
aS'total_payments'
p9
aS'other'
p10
aS'shared_receipt_with_poi'
p11
a.